target datalayout = "e-m:e-p270:32:32-p271:32:32-p272:64:64-i64:64-i128:128-f80:128-n8:16:32:64-S128"
target triple = "x86_64-pc-linux-gnu"

%"class.pxrInternal_v0_24__pxrReserved__::pxr_double_conversion::Bignum" = type { i16, i16, [128 x i32] }

; Function Attrs: mustprogress nounwind uwtable
define void @_ZN32pxrInternal_v0_24__pxrReserved__21pxr_double_conversion6Bignum5ClampEv(ptr noundef nonnull align 4 dereferenceable(516) %0) #0 align 2 {
  %2 = alloca ptr, align 8
  store ptr %0, ptr %2, align 8
  %3 = load ptr, ptr %2, align 8
  br label %4

4:                                                ; preds = %19, %1
  %5 = getelementptr inbounds nuw %"class.pxrInternal_v0_24__pxrReserved__::pxr_double_conversion::Bignum", ptr %3, i32 0, i32 0
  %6 = load i16, ptr %5, align 4
  %7 = sext i16 %6 to i32
  %8 = icmp sgt i32 %7, 0
  br i1 %8, label %9, label %17

9:                                                ; preds = %4
  %10 = getelementptr inbounds nuw %"class.pxrInternal_v0_24__pxrReserved__::pxr_double_conversion::Bignum", ptr %3, i32 0, i32 0
  %11 = load i16, ptr %10, align 4
  %12 = sext i16 %11 to i32
  %13 = sub nsw i32 %12, 1
  %14 = call noundef nonnull align 4 dereferenceable(4) ptr @_ZN32pxrInternal_v0_24__pxrReserved__21pxr_double_conversion6Bignum8RawBigitEi(ptr noundef nonnull align 4 dereferenceable(516) %3, i32 noundef %13)
  %15 = load i32, ptr %14, align 4
  %16 = icmp eq i32 %15, 0
  br label %17

17:                                               ; preds = %9, %4
  %18 = phi i1 [ false, %4 ], [ %16, %9 ]
  br i1 %18, label %19, label %23

19:                                               ; preds = %17
  %20 = getelementptr inbounds nuw %"class.pxrInternal_v0_24__pxrReserved__::pxr_double_conversion::Bignum", ptr %3, i32 0, i32 0
  %21 = load i16, ptr %20, align 4
  %22 = add i16 %21, -1
  store i16 %22, ptr %20, align 4
  br label %4, !llvm.loop !11

23:                                               ; preds = %17
  %24 = getelementptr inbounds nuw %"class.pxrInternal_v0_24__pxrReserved__::pxr_double_conversion::Bignum", ptr %3, i32 0, i32 0
  %25 = load i16, ptr %24, align 4
  %26 = sext i16 %25 to i32
  %27 = icmp eq i32 %26, 0
  br i1 %27, label %28, label %30

28:                                               ; preds = %23
  %29 = getelementptr inbounds nuw %"class.pxrInternal_v0_24__pxrReserved__::pxr_double_conversion::Bignum", ptr %3, i32 0, i32 1
  store i16 0, ptr %29, align 2
  br label %30

30:                                               ; preds = %28, %23
  ret void
}

; Function Attrs: mustprogress nounwind uwtable
define noundef nonnull align 4 dereferenceable(4) ptr @_ZN32pxrInternal_v0_24__pxrReserved__21pxr_double_conversion6Bignum8RawBigitEi(ptr noundef nonnull align 4 dereferenceable(516) %0, i32 noundef %1) #0 align 2 {
  %3 = alloca ptr, align 8
  %4 = alloca i32, align 4
  store ptr %0, ptr %3, align 8
  store i32 %1, ptr %4, align 4
  %5 = load ptr, ptr %3, align 8
  %6 = getelementptr inbounds nuw %"class.pxrInternal_v0_24__pxrReserved__::pxr_double_conversion::Bignum", ptr %5, i32 0, i32 2
  %7 = load i32, ptr %4, align 4
  %8 = sext i32 %7 to i64
  %9 = getelementptr inbounds [128 x i32], ptr %6, i64 0, i64 %8
  ret ptr %9
}

; Function Attrs: mustprogress nounwind uwtable
define noundef nonnull align 4 dereferenceable(4) ptr @_ZNK32pxrInternal_v0_24__pxrReserved__21pxr_double_conversion6Bignum8RawBigitEi(ptr noundef nonnull align 4 dereferenceable(516) %0, i32 noundef %1) #0 align 2 {
  %3 = alloca ptr, align 8
  %4 = alloca i32, align 4
  store ptr %0, ptr %3, align 8
  store i32 %1, ptr %4, align 4
  %5 = load ptr, ptr %3, align 8
  %6 = getelementptr inbounds nuw %"class.pxrInternal_v0_24__pxrReserved__::pxr_double_conversion::Bignum", ptr %5, i32 0, i32 2
  %7 = load i32, ptr %4, align 4
  %8 = sext i32 %7 to i64
  %9 = getelementptr inbounds [128 x i32], ptr %6, i64 0, i64 %8
  ret ptr %9
}

; Function Attrs: mustprogress uwtable
define void @_ZN32pxrInternal_v0_24__pxrReserved__21pxr_double_conversion6Bignum13SubtractTimesERKS1_i(ptr noundef nonnull align 4 dereferenceable(516) %0, ptr noundef nonnull align 4 dereferenceable(516) %1, i32 noundef %2) #1 align 2 {
  %4 = alloca ptr, align 8
  %5 = alloca ptr, align 8
  %6 = alloca i32, align 4
  %7 = alloca i32, align 4
  %8 = alloca i32, align 4
  %9 = alloca i32, align 4
  %10 = alloca i32, align 4
  %11 = alloca i64, align 8
  %12 = alloca i64, align 8
  %13 = alloca i32, align 4
  %14 = alloca i32, align 4
  %15 = alloca i32, align 4
  store ptr %0, ptr %4, align 8
  store ptr %1, ptr %5, align 8
  store i32 %2, ptr %6, align 4
  %16 = load ptr, ptr %4, align 8
  %17 = load i32, ptr %6, align 4
  %18 = icmp slt i32 %17, 3
  br i1 %18, label %19, label %30

19:                                               ; preds = %3
  store i32 0, ptr %7, align 4
  br label %20

20:                                               ; preds = %26, %19
  %21 = load i32, ptr %7, align 4
  %22 = load i32, ptr %6, align 4
  %23 = icmp slt i32 %21, %22
  br i1 %23, label %24, label %29

24:                                               ; preds = %20
  %25 = load ptr, ptr %5, align 8
  call void @_ZN32pxrInternal_v0_24__pxrReserved__21pxr_double_conversion6Bignum14SubtractBignumERKS1_(ptr noundef nonnull align 4 dereferenceable(516) %16, ptr noundef nonnull align 4 dereferenceable(516) %25)
  br label %26

26:                                               ; preds = %24
  %27 = load i32, ptr %7, align 4
  %28 = add nsw i32 %27, 1
  store i32 %28, ptr %7, align 4
  br label %20, !llvm.loop !37

29:                                               ; preds = %20
  br label %118

30:                                               ; preds = %3
  store i32 0, ptr %8, align 4
  %31 = load ptr, ptr %5, align 8
  %32 = getelementptr inbounds nuw %"class.pxrInternal_v0_24__pxrReserved__::pxr_double_conversion::Bignum", ptr %31, i32 0, i32 1
  %33 = load i16, ptr %32, align 2
  %34 = sext i16 %33 to i32
  %35 = getelementptr inbounds nuw %"class.pxrInternal_v0_24__pxrReserved__::pxr_double_conversion::Bignum", ptr %16, i32 0, i32 1
  %36 = load i16, ptr %35, align 2
  %37 = sext i16 %36 to i32
  %38 = sub nsw i32 %34, %37
  store i32 %38, ptr %9, align 4
  store i32 0, ptr %10, align 4
  br label %39

39:                                               ; preds = %82, %30
  %40 = load i32, ptr %10, align 4
  %41 = load ptr, ptr %5, align 8
  %42 = getelementptr inbounds nuw %"class.pxrInternal_v0_24__pxrReserved__::pxr_double_conversion::Bignum", ptr %41, i32 0, i32 0
  %43 = load i16, ptr %42, align 4
  %44 = sext i16 %43 to i32
  %45 = icmp slt i32 %40, %44
  br i1 %45, label %46, label %85

46:                                               ; preds = %39
  %47 = load i32, ptr %6, align 4
  %48 = sext i32 %47 to i64
  %49 = load ptr, ptr %5, align 8
  %50 = load i32, ptr %10, align 4
  %51 = call noundef nonnull align 4 dereferenceable(4) ptr @_ZNK32pxrInternal_v0_24__pxrReserved__21pxr_double_conversion6Bignum8RawBigitEi(ptr noundef nonnull align 4 dereferenceable(516) %49, i32 noundef %50)
  %52 = load i32, ptr %51, align 4
  %53 = zext i32 %52 to i64
  %54 = mul i64 %48, %53
  store i64 %54, ptr %11, align 8
  %55 = load i32, ptr %8, align 4
  %56 = zext i32 %55 to i64
  %57 = load i64, ptr %11, align 8
  %58 = add i64 %56, %57
  store i64 %58, ptr %12, align 8
  %59 = load i32, ptr %10, align 4
  %60 = load i32, ptr %9, align 4
  %61 = add nsw i32 %59, %60
  %62 = call noundef nonnull align 4 dereferenceable(4) ptr @_ZN32pxrInternal_v0_24__pxrReserved__21pxr_double_conversion6Bignum8RawBigitEi(ptr noundef nonnull align 4 dereferenceable(516) %16, i32 noundef %61)
  %63 = load i32, ptr %62, align 4
  %64 = zext i32 %63 to i64
  %65 = load i64, ptr %12, align 8
  %66 = and i64 %65, 268435455
  %67 = sub i64 %64, %66
  %68 = trunc i64 %67 to i32
  store i32 %68, ptr %13, align 4
  %69 = load i32, ptr %13, align 4
  %70 = and i32 %69, 268435455
  %71 = load i32, ptr %10, align 4
  %72 = load i32, ptr %9, align 4
  %73 = add nsw i32 %71, %72
  %74 = call noundef nonnull align 4 dereferenceable(4) ptr @_ZN32pxrInternal_v0_24__pxrReserved__21pxr_double_conversion6Bignum8RawBigitEi(ptr noundef nonnull align 4 dereferenceable(516) %16, i32 noundef %73)
  store i32 %70, ptr %74, align 4
  %75 = load i32, ptr %13, align 4
  %76 = lshr i32 %75, 31
  %77 = zext i32 %76 to i64
  %78 = load i64, ptr %12, align 8
  %79 = lshr i64 %78, 28
  %80 = add i64 %77, %79
  %81 = trunc i64 %80 to i32
  store i32 %81, ptr %8, align 4
  br label %82

82:                                               ; preds = %46
  %83 = load i32, ptr %10, align 4
  %84 = add nsw i32 %83, 1
  store i32 %84, ptr %10, align 4
  br label %39, !llvm.loop !38

85:                                               ; preds = %39
  %86 = load ptr, ptr %5, align 8
  %87 = getelementptr inbounds nuw %"class.pxrInternal_v0_24__pxrReserved__::pxr_double_conversion::Bignum", ptr %86, i32 0, i32 0
  %88 = load i16, ptr %87, align 4
  %89 = sext i16 %88 to i32
  %90 = load i32, ptr %9, align 4
  %91 = add nsw i32 %89, %90
  store i32 %91, ptr %14, align 4
  br label %92

92:                                               ; preds = %114, %85
  %93 = load i32, ptr %14, align 4
  %94 = getelementptr inbounds nuw %"class.pxrInternal_v0_24__pxrReserved__::pxr_double_conversion::Bignum", ptr %16, i32 0, i32 0
  %95 = load i16, ptr %94, align 4
  %96 = sext i16 %95 to i32
  %97 = icmp slt i32 %93, %96
  br i1 %97, label %98, label %117

98:                                               ; preds = %92
  %99 = load i32, ptr %8, align 4
  %100 = icmp eq i32 %99, 0
  br i1 %100, label %101, label %102

101:                                              ; preds = %98
  br label %118

102:                                              ; preds = %98
  %103 = load i32, ptr %14, align 4
  %104 = call noundef nonnull align 4 dereferenceable(4) ptr @_ZN32pxrInternal_v0_24__pxrReserved__21pxr_double_conversion6Bignum8RawBigitEi(ptr noundef nonnull align 4 dereferenceable(516) %16, i32 noundef %103)
  %105 = load i32, ptr %104, align 4
  %106 = load i32, ptr %8, align 4
  %107 = sub i32 %105, %106
  store i32 %107, ptr %15, align 4
  %108 = load i32, ptr %15, align 4
  %109 = and i32 %108, 268435455
  %110 = load i32, ptr %14, align 4
  %111 = call noundef nonnull align 4 dereferenceable(4) ptr @_ZN32pxrInternal_v0_24__pxrReserved__21pxr_double_conversion6Bignum8RawBigitEi(ptr noundef nonnull align 4 dereferenceable(516) %16, i32 noundef %110)
  store i32 %109, ptr %111, align 4
  %112 = load i32, ptr %15, align 4
  %113 = lshr i32 %112, 31
  store i32 %113, ptr %8, align 4
  br label %114

114:                                              ; preds = %102
  %115 = load i32, ptr %14, align 4
  %116 = add nsw i32 %115, 1
  store i32 %116, ptr %14, align 4
  br label %92, !llvm.loop !39

117:                                              ; preds = %92
  call void @_ZN32pxrInternal_v0_24__pxrReserved__21pxr_double_conversion6Bignum5ClampEv(ptr noundef nonnull align 4 dereferenceable(516) %16)
  br label %118

118:                                              ; preds = %117, %101, %29
  ret void
}