; Function Attrs: mustprogress nofree nounwind uwtable
define void @_ZN32pxrInternal_v0_24__pxrReserved__21pxr_double_conversion6Bignum13SubtractTimesERKS1_i(ptr nocapture noundef nonnull align 4 dereferenceable(516) %0, ptr nocapture noundef nonnull readonly align 4 dereferenceable(516) %1, i32 noundef %2) local_unnamed_addr #4 align 2 {
  %4 = icmp slt i32 %2, 3
  br i1 %4, label %.preheader, label %7

.preheader:                                       ; preds = %3
  %5 = icmp sgt i32 %2, 0
  br i1 %5, label %.lr.ph52, label %_ZN32pxrInternal_v0_24__pxrReserved__21pxr_double_conversion6Bignum5ClampEv.exit

.lr.ph52:                                         ; preds = %.preheader, %.lr.ph52
  %.051 = phi i32 [ %6, %.lr.ph52 ], [ 0, %.preheader ]
  tail call void @_ZN32pxrInternal_v0_24__pxrReserved__21pxr_double_conversion6Bignum14SubtractBignumERKS1_(ptr noundef nonnull align 4 dereferenceable(516) %0, ptr noundef nonnull align 4 dereferenceable(516) %1)
  %6 = add nuw nsw i32 %.051, 1
  %exitcond.not = icmp eq i32 %6, %2
  br i1 %exitcond.not, label %_ZN32pxrInternal_v0_24__pxrReserved__21pxr_double_conversion6Bignum5ClampEv.exit, label %.lr.ph52, !llvm.loop !36

7:                                                ; preds = %3
  %8 = getelementptr inbounds nuw i8, ptr %1, i64 2
  %9 = load i16, ptr %8, align 2
  %10 = sext i16 %9 to i32
  %11 = getelementptr inbounds nuw i8, ptr %0, i64 2
  %12 = load i16, ptr %11, align 2
  %13 = sext i16 %12 to i32
  %14 = sub nsw i32 %10, %13
  %15 = load i16, ptr %1, align 4
  %16 = icmp sgt i16 %15, 0
  br i1 %16, label %.lr.ph, label %._crit_edge

.lr.ph:                                           ; preds = %7
  %17 = zext nneg i32 %2 to i64
  %18 = getelementptr inbounds nuw i8, ptr %1, i64 4
  %19 = getelementptr inbounds nuw i8, ptr %0, i64 4
  %20 = sext i32 %14 to i64
  br label %21

21:                                               ; preds = %.lr.ph, %21
  %indvars.iv = phi i64 [ 0, %.lr.ph ], [ %indvars.iv.next, %21 ]
  %.03343 = phi i32 [ 0, %.lr.ph ], [ %38, %21 ]
  %22 = getelementptr inbounds [128 x i32], ptr %18, i64 0, i64 %indvars.iv
  %23 = load i32, ptr %22, align 4
  %24 = zext i32 %23 to i64
  %25 = mul nuw nsw i64 %24, %17
  %26 = zext i32 %.03343 to i64
  %27 = add nuw nsw i64 %25, %26
  %28 = add nsw i64 %indvars.iv, %20
  %29 = getelementptr inbounds [128 x i32], ptr %19, i64 0, i64 %28
  %30 = load i32, ptr %29, align 4
  %31 = trunc i64 %27 to i32
  %32 = and i32 %31, 268435455
  %33 = sub i32 %30, %32
  %34 = and i32 %33, 268435455
  store i32 %34, ptr %29, align 4
  %35 = lshr i32 %33, 31
  %36 = lshr i64 %27, 28
  %37 = trunc i64 %36 to i32
  %38 = add i32 %35, %37
  %indvars.iv.next = add nuw nsw i64 %indvars.iv, 1
  %39 = load i16, ptr %1, align 4
  %40 = sext i16 %39 to i64
  %41 = icmp slt i64 %indvars.iv.next, %40
  br i1 %41, label %21, label %._crit_edge, !llvm.loop !37

._crit_edge:                                      ; preds = %21, %7
  %.033.lcssa = phi i32 [ 0, %7 ], [ %38, %21 ]
  %.lcssa41.in = phi i16 [ %15, %7 ], [ %39, %21 ]
  %.lcssa41 = sext i16 %.lcssa41.in to i32
  %42 = add nsw i32 %14, %.lcssa41
  %43 = load i16, ptr %0, align 4
  %44 = sext i16 %43 to i32
  %45 = icmp slt i32 %42, %44
  br i1 %45, label %.lr.ph48, label %._crit_edge49

.lr.ph48:                                         ; preds = %._crit_edge
  %46 = getelementptr inbounds nuw i8, ptr %0, i64 4
  %47 = sext i32 %42 to i64
  br label %48

48:                                               ; preds = %.lr.ph48, %50
  %indvars.iv59 = phi i64 [ %47, %.lr.ph48 ], [ %indvars.iv.next60, %50 ]
  %.145 = phi i32 [ %.033.lcssa, %.lr.ph48 ], [ %55, %50 ]
  %49 = icmp eq i32 %.145, 0
  br i1 %49, label %_ZN32pxrInternal_v0_24__pxrReserved__21pxr_double_conversion6Bignum5ClampEv.exit, label %50

50:                                               ; preds = %48
  %51 = getelementptr inbounds [128 x i32], ptr %46, i64 0, i64 %indvars.iv59
  %52 = load i32, ptr %51, align 4
  %53 = sub i32 %52, %.145
  %54 = and i32 %53, 268435455
  store i32 %54, ptr %51, align 4
  %55 = lshr i32 %53, 31
  %indvars.iv.next60 = add nsw i64 %indvars.iv59, 1
  %56 = load i16, ptr %0, align 4
  %57 = sext i16 %56 to i64
  %58 = icmp slt i64 %indvars.iv.next60, %57
  br i1 %58, label %48, label %._crit_edge49, !llvm.loop !38

._crit_edge49:                                    ; preds = %50, %._crit_edge
  %.lcssa = phi i16 [ %43, %._crit_edge ], [ %56, %50 ]
  %59 = icmp sgt i16 %.lcssa, 0
  br i1 %59, label %.lr.ph.i, label %.critedge.i

.lr.ph.i:                                         ; preds = %._crit_edge49
  %60 = getelementptr inbounds nuw i8, ptr %0, i64 4
  br label %61

61:                                               ; preds = %69, %.lr.ph.i
  %62 = phi i16 [ %.lcssa, %.lr.ph.i ], [ %70, %69 ]
  %63 = zext nneg i16 %62 to i64
  %64 = add nuw nsw i64 %63, 4294967295
  %65 = and i64 %64, 4294967295
  %66 = getelementptr inbounds [128 x i32], ptr %60, i64 0, i64 %65
  %67 = load i32, ptr %66, align 4
  %68 = icmp eq i32 %67, 0
  br i1 %68, label %69, label %_ZN32pxrInternal_v0_24__pxrReserved__21pxr_double_conversion6Bignum5ClampEv.exit

69:                                               ; preds = %61
  %70 = add nsw i16 %62, -1
  store i16 %70, ptr %0, align 4
  %71 = icmp sgt i16 %62, 1
  br i1 %71, label %61, label %.critedge.thread3.i, !llvm.loop !9

.critedge.i:                                      ; preds = %._crit_edge49
  %72 = icmp eq i16 %.lcssa, 0
  br i1 %72, label %.critedge.thread3.i, label %_ZN32pxrInternal_v0_24__pxrReserved__21pxr_double_conversion6Bignum5ClampEv.exit

.critedge.thread3.i:                              ; preds = %69, %.critedge.i
  store i16 0, ptr %11, align 2
  br label %_ZN32pxrInternal_v0_24__pxrReserved__21pxr_double_conversion6Bignum5ClampEv.exit

_ZN32pxrInternal_v0_24__pxrReserved__21pxr_double_conversion6Bignum5ClampEv.exit: ; preds = %48, %61, %.lr.ph52, %.preheader, %.critedge.thread3.i, %.critedge.i
  ret void
}